target datalayout = "e-m:e-p270:32:32-p271:32:32-p272:64:64-i64:64-i128:128-f80:128-n8:16:32:64-S128"
target triple = "x86_64-pc-linux-gnu"

%struct.st_engine_table = type { %struct.lhash_st_ENGINE_PILE }
%struct.lhash_st_ENGINE_PILE = type { %union.lh_ENGINE_PILE_dummy }
%union.lh_ENGINE_PILE_dummy = type { ptr }
%struct.st_engine_pile_doall = type { ptr, ptr }

; Function Attrs: inlinehint nounwind uwtable
define internal void @lh_ENGINE_PILE_doall_ENGINE_PILE_DOALL(ptr noundef %0, ptr noundef %1, ptr noundef %2) #3 {
  %4 = alloca ptr, align 8
  %5 = alloca ptr, align 8
  %6 = alloca ptr, align 8
  store ptr %0, ptr %4, align 8, !tbaa !27
  store ptr %1, ptr %5, align 8, !tbaa !10
  store ptr %2, ptr %6, align 8, !tbaa !48
  %7 = load ptr, ptr %4, align 8, !tbaa !27
  %8 = load ptr, ptr %5, align 8, !tbaa !10
  %9 = load ptr, ptr %6, align 8, !tbaa !48
  call void @OPENSSL_LH_doall_arg_thunk(ptr noundef %7, ptr noundef @lh_ENGINE_PILE_doall_ENGINE_PILE_DOALL_thunk, ptr noundef %8, ptr noundef %9)
  ret void
}

; Function Attrs: nounwind uwtable
define void @engine_table_doall(ptr noundef %0, ptr noundef %1, ptr noundef %2) #0 {
  %4 = alloca ptr, align 8
  %5 = alloca ptr, align 8
  %6 = alloca ptr, align 8
  %7 = alloca %struct.st_engine_pile_doall, align 8
  store ptr %0, ptr %4, align 8, !tbaa !15
  store ptr %1, ptr %5, align 8, !tbaa !10
  store ptr %2, ptr %6, align 8, !tbaa !10
  call void @llvm.lifetime.start.p0(i64 16, ptr %7) #4
  %8 = load ptr, ptr %5, align 8, !tbaa !10
  %9 = getelementptr inbounds nuw %struct.st_engine_pile_doall, ptr %7, i32 0, i32 0
  store ptr %8, ptr %9, align 8, !tbaa !45
  %10 = load ptr, ptr %6, align 8, !tbaa !10
  %11 = getelementptr inbounds nuw %struct.st_engine_pile_doall, ptr %7, i32 0, i32 1
  store ptr %10, ptr %11, align 8, !tbaa !47
  %12 = load ptr, ptr %4, align 8, !tbaa !15
  %13 = icmp ne ptr %12, null
  br i1 %13, label %14, label %17

14:                                               ; preds = %3
  %15 = load ptr, ptr %4, align 8, !tbaa !15
  %16 = getelementptr inbounds nuw %struct.st_engine_table, ptr %15, i32 0, i32 0
  call void @lh_ENGINE_PILE_doall_ENGINE_PILE_DOALL(ptr noundef %16, ptr noundef @int_dall, ptr noundef %7)
  br label %17

17:                                               ; preds = %14, %3
  call void @llvm.lifetime.end.p0(i64 16, ptr %7) #4
  ret void
}