; Function Attrs: nounwind uwtable
define void @engine_table_doall(ptr noundef %0, ptr noundef %1, ptr noundef %2) local_unnamed_addr #2 {
  %4 = alloca %struct.st_engine_pile_doall, align 8
  call void @llvm.lifetime.start.p0(i64 16, ptr nonnull %4) #7
  store ptr %1, ptr %4, align 8, !tbaa !34
  %5 = getelementptr inbounds nuw i8, ptr %4, i64 8
  store ptr %2, ptr %5, align 8, !tbaa !36
  %.not = icmp eq ptr %0, null
  br i1 %.not, label %7, label %6

6:                                                ; preds = %3
  call void @OPENSSL_LH_doall_arg_thunk(ptr noundef nonnull %0, ptr noundef nonnull @lh_ENGINE_PILE_doall_ENGINE_PILE_DOALL_thunk, ptr noundef nonnull @int_dall, ptr noundef nonnull %4) #7
  br label %7

7:                                                ; preds = %6, %3
  call void @llvm.lifetime.end.p0(i64 16, ptr nonnull %4) #7
  ret void
}